; Function Attrs: mustprogress nofree norecurse nosync nounwind willreturn memory(readwrite, inaccessiblemem: none) uwtable
define range(i32 -2, 1) i32 @inflatePrime(ptr noundef readonly captures(address) %0, i32 noundef %1, i32 noundef %2) local_unnamed_addr #0 {
  %4 = icmp eq ptr %0, null
  br i1 %4, label %inflateStateCheck.exit.thread, label %5

5:                                                ; preds = %3
  %6 = getelementptr inbounds nuw i8, ptr %0, i64 64
  %7 = load ptr, ptr %6, align 8, !tbaa !3
  %8 = icmp eq ptr %7, null
  br i1 %8, label %inflateStateCheck.exit.thread, label %9

9:                                                ; preds = %5
  %10 = getelementptr inbounds nuw i8, ptr %0, i64 72
  %11 = load ptr, ptr %10, align 8, !tbaa !12
  %12 = icmp eq ptr %11, null
  br i1 %12, label %inflateStateCheck.exit.thread, label %13

13:                                               ; preds = %9
  %14 = getelementptr inbounds nuw i8, ptr %0, i64 56
  %15 = load ptr, ptr %14, align 8, !tbaa !13
  %16 = icmp eq ptr %15, null
  br i1 %16, label %inflateStateCheck.exit.thread, label %17

17:                                               ; preds = %13
  %18 = load ptr, ptr %15, align 8, !tbaa !14
  %.not.i = icmp eq ptr %18, %0
  br i1 %.not.i, label %inflateStateCheck.exit, label %inflateStateCheck.exit.thread

inflateStateCheck.exit:                           ; preds = %17
  %19 = getelementptr inbounds nuw i8, ptr %15, i64 8
  %20 = load i32, ptr %19, align 8, !tbaa !18
  %21 = add i32 %20, -16180
  %or.cond.i = icmp ult i32 %21, 32
  br i1 %or.cond.i, label %22, label %inflateStateCheck.exit.thread

22:                                               ; preds = %inflateStateCheck.exit
  %23 = icmp eq i32 %1, 0
  br i1 %23, label %inflateStateCheck.exit.thread, label %24

24:                                               ; preds = %22
  %25 = icmp slt i32 %1, 0
  br i1 %25, label %26, label %29

26:                                               ; preds = %24
  %27 = getelementptr inbounds nuw i8, ptr %15, i64 80
  store i64 0, ptr %27, align 8, !tbaa !28
  %28 = getelementptr inbounds nuw i8, ptr %15, i64 88
  store i32 0, ptr %28, align 8, !tbaa !29
  br label %inflateStateCheck.exit.thread

29:                                               ; preds = %24
  %30 = icmp samesign ugt i32 %1, 16
  br i1 %30, label %inflateStateCheck.exit.thread, label %31

31:                                               ; preds = %29
  %32 = getelementptr inbounds nuw i8, ptr %15, i64 88
  %33 = load i32, ptr %32, align 8, !tbaa !29
  %34 = add i32 %33, %1
  %35 = icmp ugt i32 %34, 32
  br i1 %35, label %inflateStateCheck.exit.thread, label %36

36:                                               ; preds = %31
  %37 = zext nneg i32 %1 to i64
  %notmask = shl nsw i64 -1, %37
  %38 = trunc i64 %notmask to i32
  %39 = xor i32 %38, -1
  %40 = and i32 %2, %39
  %41 = shl i32 %40, %33
  %42 = zext i32 %41 to i64
  %43 = getelementptr inbounds nuw i8, ptr %15, i64 80
  %44 = load i64, ptr %43, align 8, !tbaa !28
  %45 = add i64 %44, %42
  store i64 %45, ptr %43, align 8, !tbaa !28
  store i32 %34, ptr %32, align 8, !tbaa !29
  br label %inflateStateCheck.exit.thread

inflateStateCheck.exit.thread:                    ; preds = %13, %17, %3, %5, %9, %29, %31, %22, %inflateStateCheck.exit, %36, %26
  %.0 = phi i32 [ 0, %26 ], [ 0, %36 ], [ -2, %inflateStateCheck.exit ], [ 0, %22 ], [ -2, %31 ], [ -2, %29 ], [ -2, %9 ], [ -2, %5 ], [ -2, %3 ], [ -2, %17 ], [ -2, %13 ]
  ret i32 %.0
}